; Function Attrs: mustprogress nofree nounwind willreturn uwtable
define internal void @"_ZNSt17_Function_handlerIFvPKcEZN9V3Options13parseOptsListEP8FileLineRKNSt7__cxx1112basic_stringIcSt11char_traitsIcESaIcEEEiPPcE4$_36E9_M_invokeERKSt9_Any_dataOS1_"(ptr noundef nonnull readonly align 8 captures(none) dereferenceable(16) %0, ptr noundef nonnull readonly align 8 captures(none) dereferenceable(8) %1) #32 align 2 {
  %.val = load ptr, ptr %0, align 8, !tbaa !728
  %.val2 = load ptr, ptr %1, align 8, !tbaa !4
  %3 = tail call i64 @strtol(ptr noundef nonnull readonly captures(none) %.val2, ptr noundef null, i32 noundef 10) #40
  %4 = trunc i64 %3 to i32
  %5 = getelementptr inbounds nuw i8, ptr %.val, i64 904
  store i32 %4, ptr %5, align 8, !tbaa !448
  ret void
}